; Function Attrs: mustprogress uwtable
define void @_ZN6duckdb12NumericStats3MaxERKNS_14BaseStatisticsE(ptr dead_on_unwind noalias writable sret(%"class.duckdb::Value") align 8 %0, ptr noundef nonnull align 8 captures(address) dereferenceable(88) %1) local_unnamed_addr #3 align 2 personality ptr @__gxx_personality_v0 {
  %3 = alloca %"class.std::__cxx11::basic_string", align 8
  %4 = alloca %"class.std::allocator", align 1
  %5 = load i8, ptr %1, align 8, !tbaa !28
  %6 = icmp ne i8 %5, 1
  %7 = getelementptr inbounds nuw i8, ptr %1, i64 41
  %8 = load i8, ptr %7, align 1, !range !50
  %9 = trunc nuw i8 %8 to i1
  %.0.i = select i1 %6, i1 %9, i1 false
  br i1 %.0.i, label %24, label %10

10:                                               ; preds = %2
  %11 = tail call ptr @__cxa_allocate_exception(i64 16) #29
  call void @llvm.lifetime.start.p0(i64 32, ptr nonnull %3) #29
  call void @llvm.lifetime.start.p0(i64 1, ptr nonnull %4) #29
  invoke void @_ZNSt7__cxx1112basic_stringIcSt11char_traitsIcESaIcEEC2EPKcRKS3_(ptr noundef nonnull align 8 dereferenceable(32) %3, ptr noundef nonnull @.str.26, ptr noundef nonnull align 1 dereferenceable(1) %4)
          to label %12 unwind label %_ZNSt7__cxx1112basic_stringIcSt11char_traitsIcESaIcEED2Ev.exit.thread

12:                                               ; preds = %10
  invoke void @_ZN6duckdb17InternalExceptionC1ERKNSt7__cxx1112basic_stringIcSt11char_traitsIcESaIcEEE(ptr noundef nonnull align 8 dereferenceable(16) %11, ptr noundef nonnull align 8 dereferenceable(32) %3)
          to label %13 unwind label %15

13:                                               ; preds = %12
  invoke void @__cxa_throw(ptr nonnull %11, ptr nonnull @_ZTIN6duckdb17InternalExceptionE, ptr nonnull @_ZNSt13runtime_errorD2Ev) #33
          to label %27 unwind label %15

_ZNSt7__cxx1112basic_stringIcSt11char_traitsIcESaIcEED2Ev.exit.thread: ; preds = %10
  %14 = landingpad { ptr, i32 }
          cleanup
  call void @llvm.lifetime.end.p0(i64 1, ptr nonnull %4) #29
  call void @llvm.lifetime.end.p0(i64 32, ptr nonnull %3) #29
  br label %23

15:                                               ; preds = %13, %12
  %.0 = phi i1 [ false, %13 ], [ true, %12 ]
  %16 = landingpad { ptr, i32 }
          cleanup
  %17 = load ptr, ptr %3, align 8, !tbaa !77
  %18 = getelementptr inbounds nuw i8, ptr %3, i64 16
  %19 = icmp eq ptr %17, %18
  br i1 %19, label %_ZNKSt7__cxx1112basic_stringIcSt11char_traitsIcESaIcEE11_M_is_localEv.exit.thread.i.i, label %_ZNSt7__cxx1112basic_stringIcSt11char_traitsIcESaIcEED2Ev.exit

_ZNKSt7__cxx1112basic_stringIcSt11char_traitsIcESaIcEE11_M_is_localEv.exit.thread.i.i: ; preds = %15
  %20 = getelementptr inbounds nuw i8, ptr %3, i64 8
  %21 = load i64, ptr %20, align 8, !tbaa !81
  %22 = icmp ult i64 %21, 16
  call void @llvm.assume(i1 %22)
  call void @llvm.lifetime.end.p0(i64 1, ptr nonnull %4) #29
  call void @llvm.lifetime.end.p0(i64 32, ptr nonnull %3) #29
  br i1 %.0, label %23, label %26

_ZNSt7__cxx1112basic_stringIcSt11char_traitsIcESaIcEED2Ev.exit: ; preds = %15
  call void @_ZdlPv(ptr noundef %17) #30
  call void @llvm.lifetime.end.p0(i64 1, ptr nonnull %4) #29
  call void @llvm.lifetime.end.p0(i64 32, ptr nonnull %3) #29
  br i1 %.0, label %23, label %26

23:                                               ; preds = %_ZNKSt7__cxx1112basic_stringIcSt11char_traitsIcESaIcEE11_M_is_localEv.exit.thread.i.i, %_ZNSt7__cxx1112basic_stringIcSt11char_traitsIcESaIcEED2Ev.exit.thread, %_ZNSt7__cxx1112basic_stringIcSt11char_traitsIcESaIcEED2Ev.exit
  %.pn11 = phi { ptr, i32 } [ %14, %_ZNSt7__cxx1112basic_stringIcSt11char_traitsIcESaIcEED2Ev.exit.thread ], [ %16, %_ZNSt7__cxx1112basic_stringIcSt11char_traitsIcESaIcEED2Ev.exit ], [ %16, %_ZNKSt7__cxx1112basic_stringIcSt11char_traitsIcESaIcEE11_M_is_localEv.exit.thread.i.i ]
  call void @__cxa_free_exception(ptr %11) #29
  br label %26

24:                                               ; preds = %2
  %25 = getelementptr inbounds nuw i8, ptr %1, i64 64
  tail call void @_ZN6duckdb24NumericValueUnionToValueERKNS_11LogicalTypeERKNS_17NumericValueUnionE(ptr dead_on_unwind writable sret(%"class.duckdb::Value") align 8 %0, ptr noundef nonnull align 8 dereferenceable(24) %1, ptr noundef nonnull align 8 dereferenceable(16) %25)
  ret void

26:                                               ; preds = %_ZNKSt7__cxx1112basic_stringIcSt11char_traitsIcESaIcEE11_M_is_localEv.exit.thread.i.i, %_ZNSt7__cxx1112basic_stringIcSt11char_traitsIcESaIcEED2Ev.exit, %23
  %.pn10 = phi { ptr, i32 } [ %16, %_ZNSt7__cxx1112basic_stringIcSt11char_traitsIcESaIcEED2Ev.exit ], [ %.pn11, %23 ], [ %16, %_ZNKSt7__cxx1112basic_stringIcSt11char_traitsIcESaIcEE11_M_is_localEv.exit.thread.i.i ]
  resume { ptr, i32 } %.pn10

27:                                               ; preds = %13
  unreachable
}